; ModuleID = '10/874.c'
source_filename = "10/874.c"
target datalayout = "e-m:e-p270:32:32-p271:32:32-p272:64:64-i64:64-f80:128-n8:16:32:64-S128"
target triple = "x86_64-pc-linux-gnu"

@a = dso_local global [25 x i32] zeroinitializer, align 16
@.str = private unnamed_addr constant [3 x i8] c"%d\00", align 1
@n = common dso_local global i32 0, align 4
@.str.1 = private unnamed_addr constant [4 x i8] c"%d\0A\00", align 1

; Function Attrs: noinline nounwind uwtable
define dso_local i32 @main() #0 {
  %1 = alloca i32, align 4
  %2 = alloca i32, align 4
  %3 = alloca i32, align 4
  store i32 0, i32* %1, align 4
  store i32 0, i32* %3, align 4
  %4 = call i32 (i8*, ...) @__isoc99_scanf(i8* getelementptr inbounds ([3 x i8], [3 x i8]* @.str, i64 0, i64 0), i32* @n)
  store i32 0, i32* %2, align 4
  br label %5

5:                                                ; preds = %14, %0
  %6 = load i32, i32* %2, align 4
  %7 = load i32, i32* @n, align 4
  %8 = icmp slt i32 %6, %7
  br i1 %8, label %9, label %17

9:                                                ; preds = %5
  %10 = load i32, i32* %2, align 4
  %11 = sext i32 %10 to i64
  %12 = getelementptr inbounds [25 x i32], [25 x i32]* @a, i64 0, i64 %11
  %13 = call i32 (i8*, ...) @__isoc99_scanf(i8* getelementptr inbounds ([3 x i8], [3 x i8]* @.str, i64 0, i64 0), i32* %12)
  br label %14

14:                                               ; preds = %9
  %15 = load i32, i32* %2, align 4
  %16 = add nsw i32 %15, 1
  store i32 %16, i32* %2, align 4
  br label %5

17:                                               ; preds = %5
  store i32 0, i32* %2, align 4
  br label %18

18:                                               ; preds = %31, %17
  %19 = load i32, i32* %2, align 4
  %20 = load i32, i32* @n, align 4
  %21 = icmp slt i32 %19, %20
  br i1 %21, label %22, label %34

22:                                               ; preds = %18
  %23 = load i32, i32* %3, align 4
  %24 = load i32, i32* %2, align 4
  %25 = call i32 @F(i32 %24)
  %26 = icmp slt i32 %23, %25
  br i1 %26, label %27, label %30

27:                                               ; preds = %22
  %28 = load i32, i32* %2, align 4
  %29 = call i32 @F(i32 %28)
  store i32 %29, i32* %3, align 4
  br label %30

30:                                               ; preds = %27, %22
  br label %31

31:                                               ; preds = %30
  %32 = load i32, i32* %2, align 4
  %33 = add nsw i32 %32, 1
  store i32 %33, i32* %2, align 4
  br label %18

34:                                               ; preds = %18
  %35 = load i32, i32* %3, align 4
  %36 = call i32 (i8*, ...) @printf(i8* getelementptr inbounds ([4 x i8], [4 x i8]* @.str.1, i64 0, i64 0), i32 %35)
  %37 = load i32, i32* %1, align 4
  ret i32 %37
}

declare dso_local i32 @__isoc99_scanf(i8*, ...) #1

; Function Attrs: noinline nounwind uwtable
define dso_local i32 @F(i32 %0) #0 {
  %2 = alloca i32, align 4
  %3 = alloca i32, align 4
  %4 = alloca i32, align 4
  store i32 %0, i32* %2, align 4
  store i32 1, i32* %4, align 4
  %5 = load i32, i32* %2, align 4
  %6 = add nsw i32 %5, 1
  store i32 %6, i32* %3, align 4
  br label %7

7:                                                ; preds = %32, %1
  %8 = load i32, i32* %3, align 4
  %9 = load i32, i32* @n, align 4
  %10 = icmp slt i32 %8, %9
  br i1 %10, label %11, label %35

11:                                               ; preds = %7
  %12 = load i32, i32* %2, align 4
  %13 = sext i32 %12 to i64
  %14 = getelementptr inbounds [25 x i32], [25 x i32]* @a, i64 0, i64 %13
  %15 = load i32, i32* %14, align 4
  %16 = load i32, i32* %3, align 4
  %17 = sext i32 %16 to i64
  %18 = getelementptr inbounds [25 x i32], [25 x i32]* @a, i64 0, i64 %17
  %19 = load i32, i32* %18, align 4
  %20 = icmp sge i32 %15, %19
  br i1 %20, label %21, label %31

21:                                               ; preds = %11
  %22 = load i32, i32* %3, align 4
  %23 = call i32 @F(i32 %22)
  %24 = add nsw i32 %23, 1
  %25 = load i32, i32* %4, align 4
  %26 = icmp sgt i32 %24, %25
  br i1 %26, label %27, label %31

27:                                               ; preds = %21
  %28 = load i32, i32* %3, align 4
  %29 = call i32 @F(i32 %28)
  %30 = add nsw i32 %29, 1
  store i32 %30, i32* %4, align 4
  br label %31

31:                                               ; preds = %27, %21, %11
  br label %32

32:                                               ; preds = %31
  %33 = load i32, i32* %3, align 4
  %34 = add nsw i32 %33, 1
  store i32 %34, i32* %3, align 4
  br label %7

35:                                               ; preds = %7
  %36 = load i32, i32* %4, align 4
  ret i32 %36
}

declare dso_local i32 @printf(i8*, ...) #1


!llvm.module.flags = !{!0}
!llvm.ident = !{!1}

!0 = !{i32 1, !"wchar_size", i32 4}
!1 = !{!"clang version 10.0.0-4ubuntu1 "}
